                              1 ;--------------------------------------------------------
                              2 ; File Created by SDCC : free open source ANSI-C Compiler
                              3 ; Version 3.5.5 #9498 (Linux)
                              4 ;--------------------------------------------------------
                              5 	.module main
                              6 	.optsdcc -mz80
                              7 	
                              8 ;--------------------------------------------------------
                              9 ; Public variables in this module
                             10 ;--------------------------------------------------------
                             11 	.globl _main
                             12 	.globl _menu
                             13 	.globl _inicializar
                             14 	.globl _interrupcion
                             15 	.globl _playmusic
                             16 	.globl _play
                             17 	.globl _cpct_getScreenPtr
                             18 	.globl _cpct_setPALColour
                             19 	.globl _cpct_setPalette
                             20 	.globl _cpct_setVideoMode
                             21 	.globl _cpct_drawStringM0
                             22 	.globl _cpct_drawSprite
                             23 	.globl _cpct_isKeyPressed
                             24 	.globl _cpct_scanKeyboard_if
                             25 	.globl _cpct_scanKeyboard_f
                             26 	.globl _cpct_memset
                             27 	.globl _cpct_disableFirmware
                             28 	.globl _mostrarMenu
                             29 ;--------------------------------------------------------
                             30 ; special function registers
                             31 ;--------------------------------------------------------
                             32 ;--------------------------------------------------------
                             33 ; ram data
                             34 ;--------------------------------------------------------
                             35 	.area _DATA
   0000                      36 _interrupcion_kk_1_84:
   0000                      37 	.ds 1
                             38 ;--------------------------------------------------------
                             39 ; ram data
                             40 ;--------------------------------------------------------
                             41 	.area _INITIALIZED
   0000                      42 _mostrarMenu::
   0000                      43 	.ds 1
                             44 ;--------------------------------------------------------
                             45 ; absolute external ram data
                             46 ;--------------------------------------------------------
                             47 	.area _DABS (ABS)
                             48 ;--------------------------------------------------------
                             49 ; global & static initialisations
                             50 ;--------------------------------------------------------
                             51 	.area _HOME
                             52 	.area _GSINIT
                             53 	.area _GSFINAL
                             54 	.area _GSINIT
                             55 ;--------------------------------------------------------
                             56 ; Home
                             57 ;--------------------------------------------------------
                             58 	.area _HOME
                             59 	.area _HOME
                             60 ;--------------------------------------------------------
                             61 ; code
                             62 ;--------------------------------------------------------
                             63 	.area _CODE
                             64 ;src/main.c:30: void playmusic() {
                             65 ;	---------------------------------
                             66 ; Function playmusic
                             67 ; ---------------------------------
   0000                      68 _playmusic::
                             69 ;src/main.c:45: __endasm;
   0000 D9            [ 4]   70 	exx
   0001 08                   71 	.db	#0x08
   0002 F5            [11]   72 	push	af
   0003 C5            [11]   73 	push	bc
   0004 D5            [11]   74 	push	de
   0005 E5            [11]   75 	push	hl
   0006 CDr00r00      [17]   76 	call	_cpct_akp_musicPlay
   0009 E1            [10]   77 	pop	hl
   000A D1            [10]   78 	pop	de
   000B C1            [10]   79 	pop	bc
   000C F1            [10]   80 	pop	af
   000D 08                   81 	.db	#0x08
   000E D9            [ 4]   82 	exx
   000F C9            [10]   83 	ret
                             84 ;src/main.c:48: void interrupcion() {
                             85 ;	---------------------------------
                             86 ; Function interrupcion
                             87 ; ---------------------------------
   0010                      88 _interrupcion::
                             89 ;src/main.c:51: if (++kk == 5) {
   0010 21r00r00      [10]   90 	ld	hl, #_interrupcion_kk_1_84+0
   0013 34            [11]   91 	inc	(hl)
   0014 3Ar00r00      [13]   92 	ld	a,(#_interrupcion_kk_1_84 + 0)
   0017 D6 05         [ 7]   93 	sub	a, #0x05
   0019 C0            [11]   94 	ret	NZ
                             95 ;src/main.c:52: playmusic();
   001A CDr00r00      [17]   96 	call	_playmusic
                             97 ;src/main.c:53: cpct_scanKeyboard_if();
   001D CDr00r00      [17]   98 	call	_cpct_scanKeyboard_if
                             99 ;src/main.c:54: kk = 0;
   0020 21r00r00      [10]  100 	ld	hl,#_interrupcion_kk_1_84 + 0
   0023 36 00         [10]  101 	ld	(hl), #0x00
   0025 C9            [10]  102 	ret
                            103 ;src/main.c:57: void inicializar(){
                            104 ;	---------------------------------
                            105 ; Function inicializar
                            106 ; ---------------------------------
   0026                     107 _inicializar::
                            108 ;src/main.c:58: cpct_disableFirmware();
   0026 CDr00r00      [17]  109 	call	_cpct_disableFirmware
                            110 ;src/main.c:59: cpct_setBorder(HW_BLACK);
   0029 21 10 14      [10]  111 	ld	hl,#0x1410
   002C E5            [11]  112 	push	hl
   002D CDr00r00      [17]  113 	call	_cpct_setPALColour
                            114 ;src/main.c:60: cpct_setPalette(g_palette,16);
   0030 21 10 00      [10]  115 	ld	hl,#0x0010
   0033 E5            [11]  116 	push	hl
   0034 21r00r00      [10]  117 	ld	hl,#_g_palette
   0037 E5            [11]  118 	push	hl
   0038 CDr00r00      [17]  119 	call	_cpct_setPalette
                            120 ;src/main.c:63: cpct_setVideoMode(0);
   003B 2E 00         [ 7]  121 	ld	l,#0x00
   003D CDr00r00      [17]  122 	call	_cpct_setVideoMode
   0040 C9            [10]  123 	ret
                            124 ;src/main.c:69: void menu(){
                            125 ;	---------------------------------
                            126 ; Function menu
                            127 ; ---------------------------------
   0041                     128 _menu::
                            129 ;src/main.c:72: cpct_clearScreen(0);
   0041 21 00 40      [10]  130 	ld	hl,#0x4000
   0044 E5            [11]  131 	push	hl
   0045 AF            [ 4]  132 	xor	a, a
   0046 F5            [11]  133 	push	af
   0047 33            [ 6]  134 	inc	sp
   0048 26 C0         [ 7]  135 	ld	h, #0xC0
   004A E5            [11]  136 	push	hl
   004B CDr00r00      [17]  137 	call	_cpct_memset
                            138 ;src/main.c:73: cpct_drawSprite (g_flores1_0,
   004E 21 28 0A      [10]  139 	ld	hl,#0x0A28
   0051 E5            [11]  140 	push	hl
   0052 21 00 C0      [10]  141 	ld	hl,#0xC000
   0055 E5            [11]  142 	push	hl
   0056 21r00r00      [10]  143 	ld	hl,#_g_flores1_0
   0059 E5            [11]  144 	push	hl
   005A CDr00r00      [17]  145 	call	_cpct_drawSprite
                            146 ;src/main.c:76: cpct_drawSprite (g_flores1_1,
   005D 21 28 0A      [10]  147 	ld	hl,#0x0A28
   0060 E5            [11]  148 	push	hl
   0061 26 C0         [ 7]  149 	ld	h, #0xC0
   0063 E5            [11]  150 	push	hl
   0064 21r00r00      [10]  151 	ld	hl,#_g_flores1_1
   0067 E5            [11]  152 	push	hl
   0068 CDr00r00      [17]  153 	call	_cpct_drawSprite
                            154 ;src/main.c:80: cpct_drawSprite (g_flores2_0,
   006B 21 28 0A      [10]  155 	ld	hl,#0x0A28
   006E E5            [11]  156 	push	hl
   006F 21 E0 E6      [10]  157 	ld	hl,#0xE6E0
   0072 E5            [11]  158 	push	hl
   0073 21r00r00      [10]  159 	ld	hl,#_g_flores2_0
   0076 E5            [11]  160 	push	hl
   0077 CDr00r00      [17]  161 	call	_cpct_drawSprite
                            162 ;src/main.c:83: cpct_drawSprite (g_flores2_1,
   007A 21 28 0A      [10]  163 	ld	hl,#0x0A28
   007D E5            [11]  164 	push	hl
   007E 21 08 E7      [10]  165 	ld	hl,#0xE708
   0081 E5            [11]  166 	push	hl
   0082 21r00r00      [10]  167 	ld	hl,#_g_flores2_1
   0085 E5            [11]  168 	push	hl
   0086 CDr00r00      [17]  169 	call	_cpct_drawSprite
                            170 ;src/main.c:87: cpct_drawSprite (g_portada_0,
   0089 21 28 42      [10]  171 	ld	hl,#0x4228
   008C E5            [11]  172 	push	hl
   008D 21 50 D0      [10]  173 	ld	hl,#0xD050
   0090 E5            [11]  174 	push	hl
   0091 21r00r00      [10]  175 	ld	hl,#_g_portada_0
   0094 E5            [11]  176 	push	hl
   0095 CDr00r00      [17]  177 	call	_cpct_drawSprite
                            178 ;src/main.c:90: cpct_drawSprite (g_portada_1,
   0098 21 28 42      [10]  179 	ld	hl,#0x4228
   009B E5            [11]  180 	push	hl
   009C 21 78 D0      [10]  181 	ld	hl,#0xD078
   009F E5            [11]  182 	push	hl
   00A0 21r00r00      [10]  183 	ld	hl,#_g_portada_1
   00A3 E5            [11]  184 	push	hl
   00A4 CDr00r00      [17]  185 	call	_cpct_drawSprite
                            186 ;src/main.c:94: cpct_drawStringM0("PULSA INTRO", cpct_getScreenPtr(CPCT_VMEM_START, 17, 160), 6, 0);
   00A7 21 11 A0      [10]  187 	ld	hl,#0xA011
   00AA E5            [11]  188 	push	hl
   00AB 21 00 C0      [10]  189 	ld	hl,#0xC000
   00AE E5            [11]  190 	push	hl
   00AF CDr00r00      [17]  191 	call	_cpct_getScreenPtr
   00B2 4D            [ 4]  192 	ld	c,l
   00B3 44            [ 4]  193 	ld	b,h
   00B4 21 06 00      [10]  194 	ld	hl,#0x0006
   00B7 E5            [11]  195 	push	hl
   00B8 C5            [11]  196 	push	bc
   00B9 21rFCr00      [10]  197 	ld	hl,#___str_0
   00BC E5            [11]  198 	push	hl
   00BD CDr00r00      [17]  199 	call	_cpct_drawStringM0
   00C0 21 06 00      [10]  200 	ld	hl,#6
   00C3 39            [11]  201 	add	hl,sp
   00C4 F9            [ 6]  202 	ld	sp,hl
                            203 ;src/main.c:95: if(player.vida == 0){
   00C5 3Ar49r00      [13]  204 	ld	a, (#(_player + 0x0049) + 0)
   00C8 B7            [ 4]  205 	or	a, a
   00C9 20 1E         [12]  206 	jr	NZ,00103$
                            207 ;src/main.c:96: cpct_drawStringM0("GAME OVER", cpct_getScreenPtr(CPCT_VMEM_START, 20, 110), 3, 0);
   00CB 21 14 6E      [10]  208 	ld	hl,#0x6E14
   00CE E5            [11]  209 	push	hl
   00CF 21 00 C0      [10]  210 	ld	hl,#0xC000
   00D2 E5            [11]  211 	push	hl
   00D3 CDr00r00      [17]  212 	call	_cpct_getScreenPtr
   00D6 4D            [ 4]  213 	ld	c,l
   00D7 44            [ 4]  214 	ld	b,h
   00D8 21 03 00      [10]  215 	ld	hl,#0x0003
   00DB E5            [11]  216 	push	hl
   00DC C5            [11]  217 	push	bc
   00DD 21r08r01      [10]  218 	ld	hl,#___str_1
   00E0 E5            [11]  219 	push	hl
   00E1 CDr00r00      [17]  220 	call	_cpct_drawStringM0
   00E4 21 06 00      [10]  221 	ld	hl,#6
   00E7 39            [11]  222 	add	hl,sp
   00E8 F9            [ 6]  223 	ld	sp,hl
                            224 ;src/main.c:98: do{
   00E9                     225 00103$:
                            226 ;src/main.c:99: cpct_scanKeyboard_f();
   00E9 CDr00r00      [17]  227 	call	_cpct_scanKeyboard_f
                            228 ;src/main.c:100: }while(!cpct_isKeyPressed(Key_Enter));
   00EC 21 00 40      [10]  229 	ld	hl,#0x4000
   00EF CDr00r00      [17]  230 	call	_cpct_isKeyPressed
   00F2 7D            [ 4]  231 	ld	a,l
   00F3 B7            [ 4]  232 	or	a, a
   00F4 28 F3         [12]  233 	jr	Z,00103$
                            234 ;src/main.c:101: mostrarMenu = 0;
   00F6 21r00r00      [10]  235 	ld	hl,#_mostrarMenu + 0
   00F9 36 00         [10]  236 	ld	(hl), #0x00
   00FB C9            [10]  237 	ret
   00FC                     238 ___str_0:
   00FC 50 55 4C 53 41 20   239 	.ascii "PULSA INTRO"
        49 4E 54 52 4F
   0107 00                  240 	.db 0x00
   0108                     241 ___str_1:
   0108 47 41 4D 45 20 4F   242 	.ascii "GAME OVER"
        56 45 52
   0111 00                  243 	.db 0x00
                            244 ;src/main.c:106: void main(void) {
                            245 ;	---------------------------------
                            246 ; Function main
                            247 ; ---------------------------------
   0112                     248 _main::
                            249 ;src/main.c:108: inicializar();
   0112 CDr26r00      [17]  250 	call	_inicializar
                            251 ;src/main.c:111: while (1){
   0115                     252 00104$:
                            253 ;src/main.c:113: if(mostrarMenu % 2 == 0){
   0115 21r00r00      [10]  254 	ld	hl,#_mostrarMenu+0
   0118 CB 46         [12]  255 	bit	0, (hl)
   011A 20 03         [12]  256 	jr	NZ,00102$
                            257 ;src/main.c:114: menu();
   011C CDr41r00      [17]  258 	call	_menu
   011F                     259 00102$:
                            260 ;src/main.c:116: play();
   011F CDr00r00      [17]  261 	call	_play
   0122 18 F1         [12]  262 	jr	00104$
                            263 	.area _CODE
                            264 	.area _INITIALIZER
   0000                     265 __xinit__mostrarMenu:
   0000 01                  266 	.db #0x01	; 1
                            267 	.area _CABS (ABS)
